; Function Attrs: nounwind uwtable
define i32 @wc_ecc_cmp_point(ptr noundef %a, ptr noundef %b) local_unnamed_addr #2 {
entry:
  %cmp = icmp eq ptr %a, null
  %cmp1 = icmp eq ptr %b, null
  %or.cond = or i1 %cmp, %cmp1
  br i1 %or.cond, label %return, label %if.end

if.end:                                           ; preds = %entry
  %call = tail call i32 @sp_cmp(ptr noundef nonnull %a, ptr noundef nonnull %b) #19
  %cmp4.not = icmp eq i32 %call, 0
  br i1 %cmp4.not, label %if.end6, label %return

if.end6:                                          ; preds = %if.end
  %y = getelementptr inbounds nuw i8, ptr %a, i64 1040
  %y8 = getelementptr inbounds nuw i8, ptr %b, i64 1040
  %call10 = tail call i32 @sp_cmp(ptr noundef nonnull %y, ptr noundef nonnull %y8) #19
  %cmp11.not = icmp eq i32 %call10, 0
  br i1 %cmp11.not, label %if.end13, label %return

if.end13:                                         ; preds = %if.end6
  %z = getelementptr inbounds nuw i8, ptr %a, i64 2080
  %z15 = getelementptr inbounds nuw i8, ptr %b, i64 2080
  %call17 = tail call i32 @sp_cmp(ptr noundef nonnull %z, ptr noundef nonnull %z15) #19
  br label %return

return:                                           ; preds = %if.end13, %if.end6, %if.end, %entry
  %retval.0 = phi i32 [ -173, %entry ], [ %call, %if.end ], [ %call10, %if.end6 ], [ %call17, %if.end13 ]
  ret i32 %retval.0
}